target datalayout = "e-m:e-p270:32:32-p271:32:32-p272:64:64-i64:64-i128:128-f80:128-n8:16:32:64-S128"
target triple = "x86_64-pc-linux-gnu"

%struct.prio_queue = type { ptr, i64, ptr, i64, i64, ptr }

; Function Attrs: nounwind uwtable
define dso_local void @clear_prio_queue(ptr noundef %0) #0 {
  %2 = alloca ptr, align 8
  store ptr %0, ptr %2, align 8, !tbaa !4
  br label %3

3:                                                ; preds = %1
  %4 = load ptr, ptr %2, align 8, !tbaa !4
  %5 = getelementptr inbounds nuw %struct.prio_queue, ptr %4, i32 0, i32 5
  %6 = load ptr, ptr %5, align 8, !tbaa !17
  call void @free(ptr noundef %6) #7
  %7 = load ptr, ptr %2, align 8, !tbaa !4
  %8 = getelementptr inbounds nuw %struct.prio_queue, ptr %7, i32 0, i32 5
  store ptr null, ptr %8, align 8, !tbaa !17
  br label %9

9:                                                ; preds = %3
  %10 = load ptr, ptr %2, align 8, !tbaa !4
  %11 = getelementptr inbounds nuw %struct.prio_queue, ptr %10, i32 0, i32 4
  store i64 0, ptr %11, align 8, !tbaa !13
  %12 = load ptr, ptr %2, align 8, !tbaa !4
  %13 = getelementptr inbounds nuw %struct.prio_queue, ptr %12, i32 0, i32 3
  store i64 0, ptr %13, align 8, !tbaa !19
  %14 = load ptr, ptr %2, align 8, !tbaa !4
  %15 = getelementptr inbounds nuw %struct.prio_queue, ptr %14, i32 0, i32 1
  store i64 0, ptr %15, align 8, !tbaa !20
  ret void
}